; Function Attrs: mustprogress nofree norecurse nosync nounwind willreturn memory(argmem: readwrite) uwtable
define range(i32 0, 9) i32 @png_get_PLTE(ptr noalias noundef readnone %0, ptr noalias noundef readonly %1, ptr noundef writeonly %2, ptr nocapture noundef writeonly %3) local_unnamed_addr #3 {
  %5 = icmp ne ptr %0, null
  %6 = icmp ne ptr %1, null
  %or.cond = and i1 %5, %6
  br i1 %or.cond, label %7, label %19

7:                                                ; preds = %4
  %8 = getelementptr inbounds i8, ptr %1, i64 8
  %9 = load i32, ptr %8, align 8
  %10 = and i32 %9, 8
  %11 = icmp ne i32 %10, 0
  %12 = icmp ne ptr %2, null
  %or.cond3 = and i1 %12, %11
  br i1 %or.cond3, label %13, label %19

13:                                               ; preds = %7
  %14 = getelementptr inbounds i8, ptr %1, i64 24
  %15 = load ptr, ptr %14, align 8
  store ptr %15, ptr %2, align 8
  %16 = getelementptr inbounds i8, ptr %1, i64 32
  %17 = load i16, ptr %16, align 8
  %18 = zext i16 %17 to i32
  store i32 %18, ptr %3, align 4
  br label %19

19:                                               ; preds = %4, %7, %13
  %.0 = phi i32 [ 8, %13 ], [ 0, %7 ], [ 0, %4 ]
  ret i32 %.0
}